target datalayout = "e-m:e-p270:32:32-p271:32:32-p272:64:64-i64:64-i128:128-f80:128-n8:16:32:64-S128"
target triple = "x86_64-unknown-linux-gnu"

%struct.aiColor3D = type { float, float, float }

; Function Attrs: mustprogress nounwind uwtable
define linkonce_odr hidden void @_ZN9aiColor3DC2Ev(ptr noundef nonnull align 4 dereferenceable(12) %this) unnamed_addr #0 comdat align 2 {
entry:
  %this.addr = alloca ptr, align 8
  store ptr %this, ptr %this.addr, align 8
  %this1 = load ptr, ptr %this.addr, align 8
  %r = getelementptr inbounds %struct.aiColor3D, ptr %this1, i32 0, i32 0
  store float 0.000000e+00, ptr %r, align 4
  %g = getelementptr inbounds %struct.aiColor3D, ptr %this1, i32 0, i32 1
  store float 0.000000e+00, ptr %g, align 4
  %b = getelementptr inbounds %struct.aiColor3D, ptr %this1, i32 0, i32 2
  store float 0.000000e+00, ptr %b, align 4
  ret void
}

; Function Attrs: mustprogress uwtable
define hidden void @_ZN6Assimp11XFileParser7ReadRGBEv(ptr noalias sret(%struct.aiColor3D) align 4 %agg.result, ptr noundef nonnull align 8 dereferenceable(56) %this) #2 align 2 {
entry:
  %result.ptr = alloca ptr, align 8
  %this.addr = alloca ptr, align 8
  store ptr %agg.result, ptr %result.ptr, align 8
  store ptr %this, ptr %this.addr, align 8
  %this1 = load ptr, ptr %this.addr, align 8
  call void @_ZN9aiColor3DC2Ev(ptr noundef nonnull align 4 dereferenceable(12) %agg.result) #16
  %call = call noundef float @_ZN6Assimp11XFileParser9ReadFloatEv(ptr noundef nonnull align 8 dereferenceable(56) %this1)
  %r = getelementptr inbounds %struct.aiColor3D, ptr %agg.result, i32 0, i32 0
  store float %call, ptr %r, align 4
  %call2 = call noundef float @_ZN6Assimp11XFileParser9ReadFloatEv(ptr noundef nonnull align 8 dereferenceable(56) %this1)
  %g = getelementptr inbounds %struct.aiColor3D, ptr %agg.result, i32 0, i32 1
  store float %call2, ptr %g, align 4
  %call3 = call noundef float @_ZN6Assimp11XFileParser9ReadFloatEv(ptr noundef nonnull align 8 dereferenceable(56) %this1)
  %b = getelementptr inbounds %struct.aiColor3D, ptr %agg.result, i32 0, i32 2
  store float %call3, ptr %b, align 4
  call void @_ZN6Assimp11XFileParser16TestForSeparatorEv(ptr noundef nonnull align 8 dereferenceable(56) %this1)
  ret void
}