; Function Attrs: mustprogress uwtable
define hidden void @_ZN6Assimp11XFileParser7ReadRGBEv(ptr noalias nocapture writeonly sret(%struct.aiColor3D) align 4 %agg.result, ptr noundef nonnull align 8 dereferenceable(56) %this) local_unnamed_addr #0 align 2 {
entry:
  %g.i = getelementptr inbounds i8, ptr %agg.result, i64 4
  store <2 x float> zeroinitializer, ptr %agg.result, align 4
  %b.i = getelementptr inbounds i8, ptr %agg.result, i64 8
  store float 0.000000e+00, ptr %b.i, align 4
  %call = tail call noundef float @_ZN6Assimp11XFileParser9ReadFloatEv(ptr noundef nonnull align 8 dereferenceable(56) %this)
  store float %call, ptr %agg.result, align 4
  %call2 = tail call noundef float @_ZN6Assimp11XFileParser9ReadFloatEv(ptr noundef nonnull align 8 dereferenceable(56) %this)
  store float %call2, ptr %g.i, align 4
  %call3 = tail call noundef float @_ZN6Assimp11XFileParser9ReadFloatEv(ptr noundef nonnull align 8 dereferenceable(56) %this)
  store float %call3, ptr %b.i, align 4
  tail call void @_ZN6Assimp11XFileParser16TestForSeparatorEv(ptr noundef nonnull align 8 dereferenceable(56) %this)
  ret void
}